target datalayout = "e-m:e-p270:32:32-p271:32:32-p272:64:64-i64:64-f80:128-n8:16:32:64-S128"
target triple = "x86_64-pc-linux-gnu"

@.str = private unnamed_addr constant [4 x i8] c"%d \00", align 1
@.str.1 = private unnamed_addr constant [4 x i8] c"%s \00", align 1
@.str.2 = private unnamed_addr constant [3 x i8] c"%d\00", align 1
@.str.3 = private unnamed_addr constant [3 x i8] c"%c\00", align 1
@.str.4 = private unnamed_addr constant [2 x i8] c"\0A\00", align 1

; Function Attrs: noinline nounwind uwtable
define dso_local void @main() #0 {
  %1 = alloca [1000 x i8], align 16
  %2 = alloca i32, align 4
  %3 = alloca i32, align 4
  %4 = alloca i32, align 4
  %5 = alloca i32, align 4
  %6 = alloca i32, align 4
  %7 = alloca i32, align 4
  %8 = alloca [100 x i32], align 16
  %9 = alloca i32, align 4
  store i32 0, i32* %3, align 4
  %10 = call i32 (i8*, ...) @__isoc99_scanf(i8* getelementptr inbounds ([4 x i8], [4 x i8]* @.str, i64 0, i64 0), i32* %5)
  %11 = getelementptr inbounds [1000 x i8], [1000 x i8]* %1, i64 0, i64 0
  %12 = call i32 (i8*, ...) @__isoc99_scanf(i8* getelementptr inbounds ([4 x i8], [4 x i8]* @.str.1, i64 0, i64 0), i8* %11)
  %13 = call i32 (i8*, ...) @__isoc99_scanf(i8* getelementptr inbounds ([3 x i8], [3 x i8]* @.str.2, i64 0, i64 0), i32* %6)
  %14 = getelementptr inbounds [1000 x i8], [1000 x i8]* %1, i64 0, i64 0
  %15 = call i64 @strlen(i8* %14) #4
  %16 = trunc i64 %15 to i32
  store i32 %16, i32* %2, align 4
  store i32 0, i32* %4, align 4
  br label %17

17:                                               ; preds = %102, %0
  %18 = load i32, i32* %4, align 4
  %19 = load i32, i32* %2, align 4
  %20 = sub nsw i32 %19, 1
  %21 = icmp sle i32 %18, %20
  br i1 %21, label %22, label %105

22:                                               ; preds = %17
  %23 = load i32, i32* %4, align 4
  %24 = sext i32 %23 to i64
  %25 = getelementptr inbounds [1000 x i8], [1000 x i8]* %1, i64 0, i64 %24
  %26 = load i8, i8* %25, align 1
  %27 = sext i8 %26 to i32
  %28 = icmp sle i32 65, %27
  br i1 %28, label %29, label %48

29:                                               ; preds = %22
  %30 = load i32, i32* %4, align 4
  %31 = sext i32 %30 to i64
  %32 = getelementptr inbounds [1000 x i8], [1000 x i8]* %1, i64 0, i64 %31
  %33 = load i8, i8* %32, align 1
  %34 = sext i8 %33 to i32
  %35 = icmp sle i32 %34, 90
  br i1 %35, label %36, label %48

36:                                               ; preds = %29
  %37 = load i32, i32* %4, align 4
  %38 = sext i32 %37 to i64
  %39 = getelementptr inbounds [1000 x i8], [1000 x i8]* %1, i64 0, i64 %38
  %40 = load i8, i8* %39, align 1
  %41 = sext i8 %40 to i32
  %42 = sub nsw i32 %41, 65
  %43 = add nsw i32 %42, 10
  %44 = trunc i32 %43 to i8
  %45 = load i32, i32* %4, align 4
  %46 = sext i32 %45 to i64
  %47 = getelementptr inbounds [1000 x i8], [1000 x i8]* %1, i64 0, i64 %46
  store i8 %44, i8* %47, align 1
  br label %101

48:                                               ; preds = %29, %22
  %49 = load i32, i32* %4, align 4
  %50 = sext i32 %49 to i64
  %51 = getelementptr inbounds [1000 x i8], [1000 x i8]* %1, i64 0, i64 %50
  %52 = load i8, i8* %51, align 1
  %53 = sext i8 %52 to i32
  %54 = icmp sle i32 97, %53
  br i1 %54, label %55, label %74

55:                                               ; preds = %48
  %56 = load i32, i32* %4, align 4
  %57 = sext i32 %56 to i64
  %58 = getelementptr inbounds [1000 x i8], [1000 x i8]* %1, i64 0, i64 %57
  %59 = load i8, i8* %58, align 1
  %60 = sext i8 %59 to i32
  %61 = icmp sle i32 %60, 122
  br i1 %61, label %62, label %74

62:                                               ; preds = %55
  %63 = load i32, i32* %4, align 4
  %64 = sext i32 %63 to i64
  %65 = getelementptr inbounds [1000 x i8], [1000 x i8]* %1, i64 0, i64 %64
  %66 = load i8, i8* %65, align 1
  %67 = sext i8 %66 to i32
  %68 = sub nsw i32 %67, 97
  %69 = add nsw i32 %68, 10
  %70 = trunc i32 %69 to i8
  %71 = load i32, i32* %4, align 4
  %72 = sext i32 %71 to i64
  %73 = getelementptr inbounds [1000 x i8], [1000 x i8]* %1, i64 0, i64 %72
  store i8 %70, i8* %73, align 1
  br label %100

74:                                               ; preds = %55, %48
  %75 = load i32, i32* %4, align 4
  %76 = sext i32 %75 to i64
  %77 = getelementptr inbounds [1000 x i8], [1000 x i8]* %1, i64 0, i64 %76
  %78 = load i8, i8* %77, align 1
  %79 = sext i8 %78 to i32
  %80 = icmp sle i32 48, %79
  br i1 %80, label %81, label %99

81:                                               ; preds = %74
  %82 = load i32, i32* %4, align 4
  %83 = sext i32 %82 to i64
  %84 = getelementptr inbounds [1000 x i8], [1000 x i8]* %1, i64 0, i64 %83
  %85 = load i8, i8* %84, align 1
  %86 = sext i8 %85 to i32
  %87 = icmp sle i32 %86, 57
  br i1 %87, label %88, label %99

88:                                               ; preds = %81
  %89 = load i32, i32* %4, align 4
  %90 = sext i32 %89 to i64
  %91 = getelementptr inbounds [1000 x i8], [1000 x i8]* %1, i64 0, i64 %90
  %92 = load i8, i8* %91, align 1
  %93 = sext i8 %92 to i32
  %94 = sub nsw i32 %93, 48
  %95 = trunc i32 %94 to i8
  %96 = load i32, i32* %4, align 4
  %97 = sext i32 %96 to i64
  %98 = getelementptr inbounds [1000 x i8], [1000 x i8]* %1, i64 0, i64 %97
  store i8 %95, i8* %98, align 1
  br label %99

99:                                               ; preds = %88, %81, %74
  br label %100

100:                                              ; preds = %99, %62
  br label %101

101:                                              ; preds = %100, %36
  br label %102

102:                                              ; preds = %101
  %103 = load i32, i32* %4, align 4
  %104 = add nsw i32 %103, 1
  store i32 %104, i32* %4, align 4
  br label %17

105:                                              ; preds = %17
  store i32 0, i32* %4, align 4
  br label %106

106:                                              ; preds = %130, %105
  %107 = load i32, i32* %4, align 4
  %108 = load i32, i32* %2, align 4
  %109 = sub nsw i32 %108, 1
  %110 = icmp sle i32 %107, %109
  br i1 %110, label %111, label %133

111:                                              ; preds = %106
  %112 = load i32, i32* %3, align 4
  %113 = load i32, i32* %4, align 4
  %114 = sext i32 %113 to i64
  %115 = getelementptr inbounds [1000 x i8], [1000 x i8]* %1, i64 0, i64 %114
  %116 = load i8, i8* %115, align 1
  %117 = sext i8 %116 to i32
  %118 = sitofp i32 %117 to double
  %119 = load i32, i32* %5, align 4
  %120 = sitofp i32 %119 to double
  %121 = load i32, i32* %2, align 4
  %122 = load i32, i32* %4, align 4
  %123 = sub nsw i32 %121, %122
  %124 = sub nsw i32 %123, 1
  %125 = sitofp i32 %124 to double
  %126 = call double @pow(double %120, double %125) #5
  %127 = fmul double %118, %126
  %128 = fptosi double %127 to i32
  %129 = add nsw i32 %112, %128
  store i32 %129, i32* %3, align 4
  br label %130

130:                                              ; preds = %111
  %131 = load i32, i32* %4, align 4
  %132 = add nsw i32 %131, 1
  store i32 %132, i32* %4, align 4
  br label %106

133:                                              ; preds = %106
  %134 = load i32, i32* %3, align 4
  %135 = icmp eq i32 %134, 0
  br i1 %135, label %136, label %139

136:                                              ; preds = %133
  %137 = load i32, i32* %3, align 4
  %138 = call i32 (i8*, ...) @printf(i8* getelementptr inbounds ([3 x i8], [3 x i8]* @.str.2, i64 0, i64 0), i32 %137)
  br label %139

139:                                              ; preds = %136, %133
  %140 = load i32, i32* %3, align 4
  %141 = icmp ne i32 %140, 0
  br i1 %141, label %142, label %211

142:                                              ; preds = %139
  %143 = load i32, i32* %3, align 4
  store i32 %143, i32* %7, align 4
  store i32 0, i32* %4, align 4
  br label %144

144:                                              ; preds = %157, %142
  %145 = load i32, i32* %7, align 4
  %146 = icmp ne i32 %145, 0
  br i1 %146, label %147, label %160

147:                                              ; preds = %144
  %148 = load i32, i32* %7, align 4
  %149 = load i32, i32* %6, align 4
  %150 = srem i32 %148, %149
  %151 = load i32, i32* %4, align 4
  %152 = sext i32 %151 to i64
  %153 = getelementptr inbounds [100 x i32], [100 x i32]* %8, i64 0, i64 %152
  store i32 %150, i32* %153, align 4
  %154 = load i32, i32* %7, align 4
  %155 = load i32, i32* %6, align 4
  %156 = sdiv i32 %154, %155
  store i32 %156, i32* %7, align 4
  br label %157

157:                                              ; preds = %147
  %158 = load i32, i32* %4, align 4
  %159 = add nsw i32 %158, 1
  store i32 %159, i32* %4, align 4
  br label %144

160:                                              ; preds = %144
  %161 = load i32, i32* %4, align 4
  %162 = sub nsw i32 %161, 1
  store i32 %162, i32* %9, align 4
  br label %163

163:                                              ; preds = %207, %160
  %164 = load i32, i32* %9, align 4
  %165 = icmp sge i32 %164, 0
  br i1 %165, label %166, label %210

166:                                              ; preds = %163
  %167 = load i32, i32* %9, align 4
  %168 = sext i32 %167 to i64
  %169 = getelementptr inbounds [100 x i32], [100 x i32]* %8, i64 0, i64 %168
  %170 = load i32, i32* %169, align 4
  %171 = icmp sle i32 0, %170
  br i1 %171, label %172, label %184

172:                                              ; preds = %166
  %173 = load i32, i32* %9, align 4
  %174 = sext i32 %173 to i64
  %175 = getelementptr inbounds [100 x i32], [100 x i32]* %8, i64 0, i64 %174
  %176 = load i32, i32* %175, align 4
  %177 = icmp sle i32 %176, 9
  br i1 %177, label %178, label %184

178:                                              ; preds = %172
  %179 = load i32, i32* %9, align 4
  %180 = sext i32 %179 to i64
  %181 = getelementptr inbounds [100 x i32], [100 x i32]* %8, i64 0, i64 %180
  %182 = load i32, i32* %181, align 4
  %183 = call i32 (i8*, ...) @printf(i8* getelementptr inbounds ([3 x i8], [3 x i8]* @.str.2, i64 0, i64 0), i32 %182)
  br label %206

184:                                              ; preds = %172, %166
  %185 = load i32, i32* %9, align 4
  %186 = sext i32 %185 to i64
  %187 = getelementptr inbounds [100 x i32], [100 x i32]* %8, i64 0, i64 %186
  %188 = load i32, i32* %187, align 4
  %189 = icmp sge i32 %188, 10
  br i1 %189, label %190, label %205

190:                                              ; preds = %184
  %191 = load i32, i32* %9, align 4
  %192 = sext i32 %191 to i64
  %193 = getelementptr inbounds [100 x i32], [100 x i32]* %8, i64 0, i64 %192
  %194 = load i32, i32* %193, align 4
  %195 = add nsw i32 %194, 65
  %196 = sub nsw i32 %195, 10
  %197 = load i32, i32* %9, align 4
  %198 = sext i32 %197 to i64
  %199 = getelementptr inbounds [100 x i32], [100 x i32]* %8, i64 0, i64 %198
  store i32 %196, i32* %199, align 4
  %200 = load i32, i32* %9, align 4
  %201 = sext i32 %200 to i64
  %202 = getelementptr inbounds [100 x i32], [100 x i32]* %8, i64 0, i64 %201
  %203 = load i32, i32* %202, align 4
  %204 = call i32 (i8*, ...) @printf(i8* getelementptr inbounds ([3 x i8], [3 x i8]* @.str.3, i64 0, i64 0), i32 %203)
  br label %205

205:                                              ; preds = %190, %184
  br label %206

206:                                              ; preds = %205, %178
  br label %207

207:                                              ; preds = %206
  %208 = load i32, i32* %9, align 4
  %209 = add nsw i32 %208, -1
  store i32 %209, i32* %9, align 4
  br label %163

210:                                              ; preds = %163
  br label %211

211:                                              ; preds = %210, %139
  %212 = call i32 (i8*, ...) @printf(i8* getelementptr inbounds ([2 x i8], [2 x i8]* @.str.4, i64 0, i64 0))
  ret void
}